; Function Attrs: mustprogress nofree norecurse nosync nounwind memory(argmem: readwrite) uwtable
define internal void @_ZN2cvL15transpose_32sC2EPKhmPhmNS_5Size_IiEE(ptr noundef readonly captures(none) %0, i64 noundef %1, ptr noundef writeonly captures(none) %2, i64 noundef %3, i64 %4) #7 {
  %.sroa.0.0.extract.trunc.i = trunc i64 %4 to i32
  %.sroa.2.0.extract.shift.i = lshr i64 %4, 32
  %6 = icmp sgt i32 %.sroa.0.0.extract.trunc.i, 0
  %.sroa.2.0.extract.trunc.i = trunc nuw i64 %.sroa.2.0.extract.shift.i to i32
  %7 = icmp sgt i32 %.sroa.2.0.extract.trunc.i, 0
  %or.cond.i = select i1 %6, i1 %7, i1 false
  br i1 %or.cond.i, label %.lr.ph.us.preheader.i, label %_ZN2cvL10transpose_INS_3VecIiLi2EEEEEvPKhmPhmNS_5Size_IiEE.exit

.lr.ph.us.preheader.i:                            ; preds = %5
  %wide.trip.count26.i = and i64 %4, 2147483647
  br label %.lr.ph.us.i

.lr.ph.us.i:                                      ; preds = %._crit_edge.us.i, %.lr.ph.us.preheader.i
  %indvars.iv23.i = phi i64 [ 0, %.lr.ph.us.preheader.i ], [ %indvars.iv.next24.i, %._crit_edge.us.i ]
  %8 = mul i64 %indvars.iv23.i, %3
  %9 = getelementptr inbounds nuw i8, ptr %2, i64 %8
  %10 = shl nuw nsw i64 %indvars.iv23.i, 3
  %11 = getelementptr inbounds nuw i8, ptr %0, i64 %10
  br label %12

12:                                               ; preds = %12, %.lr.ph.us.i
  %indvars.iv.i = phi i64 [ 0, %.lr.ph.us.i ], [ %indvars.iv.next.i, %12 ]
  %13 = mul i64 %indvars.iv.i, %1
  %14 = getelementptr inbounds nuw i8, ptr %11, i64 %13
  %15 = getelementptr inbounds nuw %"class.cv::Vec.13", ptr %9, i64 %indvars.iv.i
  %16 = load i64, ptr %14, align 4
  store i64 %16, ptr %15, align 4
  %indvars.iv.next.i = add nuw nsw i64 %indvars.iv.i, 1
  %exitcond.not.i = icmp eq i64 %indvars.iv.next.i, %.sroa.2.0.extract.shift.i
  br i1 %exitcond.not.i, label %._crit_edge.us.i, label %12, !llvm.loop !184

._crit_edge.us.i:                                 ; preds = %12
  %indvars.iv.next24.i = add nuw nsw i64 %indvars.iv23.i, 1
  %exitcond27.not.i = icmp eq i64 %indvars.iv.next24.i, %wide.trip.count26.i
  br i1 %exitcond27.not.i, label %_ZN2cvL10transpose_INS_3VecIiLi2EEEEEvPKhmPhmNS_5Size_IiEE.exit, label %.lr.ph.us.i, !llvm.loop !185

_ZN2cvL10transpose_INS_3VecIiLi2EEEEEvPKhmPhmNS_5Size_IiEE.exit: ; preds = %._crit_edge.us.i, %5
  ret void
}